; Function Attrs: nounwind uwtable
define internal range(i32 0, 2) i32 @sm4_xts_stream_update(ptr noundef %0, ptr noundef %1, ptr noundef writeonly captures(none) %2, i64 noundef %3, ptr noundef %4, i64 noundef %5) #0 {
  %7 = icmp ult i64 %3, %5
  br i1 %7, label %.sink.split, label %8

8:                                                ; preds = %6
  %9 = tail call i32 @sm4_xts_cipher(ptr noundef %0, ptr noundef %1, ptr noundef %2, i64 poison, ptr noundef %4, i64 noundef %5)
  %.not = icmp eq i32 %9, 0
  br i1 %.not, label %.sink.split, label %10

.sink.split:                                      ; preds = %8, %6
  %.sink11 = phi i32 [ 171, %6 ], [ 176, %8 ]
  %.sink = phi i32 [ 106, %6 ], [ 102, %8 ]
  tail call void @ERR_new() #4
  tail call void @ERR_set_debug(ptr noundef nonnull @.str, i32 noundef %.sink11, ptr noundef nonnull @__func__.sm4_xts_stream_update) #4
  tail call void (i32, i32, ptr, ...) @ERR_set_error(i32 noundef 57, i32 noundef %.sink, ptr noundef null) #4
  br label %10

10:                                               ; preds = %.sink.split, %8
  %.0 = phi i32 [ 1, %8 ], [ 0, %.sink.split ]
  ret i32 %.0
}